target datalayout = "e-m:e-p270:32:32-p271:32:32-p272:64:64-i64:64-i128:128-f80:128-n8:16:32:64-S128"
target triple = "x86_64-pc-linux-gnu"

%"class.cv::MatOp" = type { ptr }
%"class.cv::MatOp_Invert" = type { %"class.cv::MatOp" }
%"class.cv::MatOp_T" = type { %"class.cv::MatOp" }
%"class.cv::MatOp_Solve" = type { %"class.cv::MatOp" }
%"class.cv::MatExpr" = type { ptr, i32, %"class.cv::Mat", %"class.cv::Mat", %"class.cv::Mat", double, double, %"class.cv::Scalar_" }
%"class.cv::Mat" = type { i32, i32, i32, i32, ptr, ptr, ptr, ptr, ptr, ptr, %"struct.cv::MatSize", %"struct.cv::MatStep" }
%"struct.cv::MatSize" = type { ptr }
%"struct.cv::MatStep" = type { ptr, [2 x i64] }
%"class.cv::Scalar_" = type { %"class.cv::Vec" }
%"class.cv::Vec" = type { %"class.cv::Matx" }
%"class.cv::Matx" = type { [4 x double] }
%"class.cv::Size_" = type { i32, i32 }

@_ZN2cvL14g_MatOp_InvertE = internal global %"class.cv::MatOp_Invert" zeroinitializer, align 8
@_ZN2cvL9g_MatOp_TE = internal global %"class.cv::MatOp_T" zeroinitializer, align 8
@_ZN2cvL13g_MatOp_SolveE = internal global %"class.cv::MatOp_Solve" zeroinitializer, align 8
@_ZZN2cvL25getGlobalMatOpInitializerEvE8instance = internal global ptr null, align 8
@_ZGVZN2cvL25getGlobalMatOpInitializerEvE8instance = internal global i64 0, align 8

; Function Attrs: mustprogress nounwind uwtable
define void @_ZN2cv5MatOpC2Ev(ptr noundef nonnull align 8 dereferenceable(8) %0) unnamed_addr #4 align 2 {
  %2 = alloca ptr, align 8
  store ptr %0, ptr %2, align 8
  %3 = load ptr, ptr %2, align 8
  store ptr getelementptr inbounds inrange(-16, 216) ({ [29 x ptr] }, ptr @_ZTVN2cv5MatOpE, i32 0, i32 0, i32 2), ptr %3, align 8
  ret void
}

; Function Attrs: mustprogress nounwind uwtable
define linkonce_odr hidden void @_ZN2cv17MatOp_InitializerC2Ev(ptr noundef nonnull align 8 dereferenceable(8) %0) unnamed_addr #4 comdat align 2 {
  %2 = alloca ptr, align 8
  store ptr %0, ptr %2, align 8
  %3 = load ptr, ptr %2, align 8
  call void @_ZN2cv5MatOpC2Ev(ptr noundef nonnull align 8 dereferenceable(8) %3)
  store ptr getelementptr inbounds inrange(-16, 216) ({ [29 x ptr] }, ptr @_ZTVN2cv17MatOp_InitializerE, i32 0, i32 0, i32 2), ptr %3, align 8
  ret void
}

; Function Attrs: mustprogress uwtable
define internal noundef ptr @_ZN2cvL25getGlobalMatOpInitializerEv() #6 personality ptr @__gxx_personality_v0 {
  %1 = alloca ptr, align 8
  %2 = alloca i32, align 4
  %3 = load atomic i8, ptr @_ZGVZN2cvL25getGlobalMatOpInitializerEvE8instance acquire, align 8
  %4 = icmp eq i8 %3, 0
  br i1 %4, label %5, label %12, !prof !6

5:                                                ; preds = %0
  %6 = call i32 @__cxa_guard_acquire(ptr @_ZGVZN2cvL25getGlobalMatOpInitializerEvE8instance) #3
  %7 = icmp ne i32 %6, 0
  br i1 %7, label %8, label %12

8:                                                ; preds = %5
  %9 = invoke noalias noundef nonnull ptr @_Znwm(i64 noundef 8) #16
          to label %10 unwind label %14

10:                                               ; preds = %8
  invoke void @_ZN2cv17MatOp_InitializerC2Ev(ptr noundef nonnull align 8 dereferenceable(8) %9)
          to label %11 unwind label %18

11:                                               ; preds = %10
  store ptr %9, ptr @_ZZN2cvL25getGlobalMatOpInitializerEvE8instance, align 8
  call void @__cxa_guard_release(ptr @_ZGVZN2cvL25getGlobalMatOpInitializerEvE8instance) #3
  br label %12

12:                                               ; preds = %11, %5, %0
  %13 = load ptr, ptr @_ZZN2cvL25getGlobalMatOpInitializerEvE8instance, align 8
  ret ptr %13

14:                                               ; preds = %8
  %15 = landingpad { ptr, i32 }
          cleanup
  %16 = extractvalue { ptr, i32 } %15, 0
  store ptr %16, ptr %1, align 8
  %17 = extractvalue { ptr, i32 } %15, 1
  store i32 %17, ptr %2, align 4
  br label %22

18:                                               ; preds = %10
  %19 = landingpad { ptr, i32 }
          cleanup
  %20 = extractvalue { ptr, i32 } %19, 0
  store ptr %20, ptr %1, align 8
  %21 = extractvalue { ptr, i32 } %19, 1
  store i32 %21, ptr %2, align 4
  call void @_ZdlPv(ptr noundef %9) #15
  br label %22

22:                                               ; preds = %18, %14
  call void @__cxa_guard_abort(ptr @_ZGVZN2cvL25getGlobalMatOpInitializerEvE8instance) #3
  br label %23

23:                                               ; preds = %22
  %24 = load ptr, ptr %1, align 8
  %25 = load i32, ptr %2, align 4
  %26 = insertvalue { ptr, i32 } poison, ptr %24, 0
  %27 = insertvalue { ptr, i32 } %26, i32 %25, 1
  resume { ptr, i32 } %27
}

; Function Attrs: mustprogress nounwind uwtable
define linkonce_odr hidden void @_ZN2cv5Size_IiEC2Ev(ptr noundef nonnull align 4 dereferenceable(8) %0) unnamed_addr #4 comdat align 2 {
  %2 = alloca ptr, align 8
  store ptr %0, ptr %2, align 8
  %3 = load ptr, ptr %2, align 8
  %4 = getelementptr inbounds %"class.cv::Size_", ptr %3, i32 0, i32 0
  store i32 0, ptr %4, align 4
  %5 = getelementptr inbounds %"class.cv::Size_", ptr %3, i32 0, i32 1
  store i32 0, ptr %5, align 4
  ret void
}

; Function Attrs: mustprogress uwtable
define linkonce_odr hidden i64 @_ZNK2cv7MatSizeclEv(ptr noundef nonnull align 8 dereferenceable(8) %0) #6 comdat align 2 {
  %2 = alloca %"class.cv::Size_", align 4
  %3 = alloca ptr, align 8
  store ptr %0, ptr %3, align 8
  %4 = load ptr, ptr %3, align 8
  %5 = getelementptr inbounds %"struct.cv::MatSize", ptr %4, i32 0, i32 0
  %6 = load ptr, ptr %5, align 8
  %7 = getelementptr inbounds i32, ptr %6, i64 1
  %8 = load i32, ptr %7, align 4
  %9 = getelementptr inbounds %"struct.cv::MatSize", ptr %4, i32 0, i32 0
  %10 = load ptr, ptr %9, align 8
  %11 = getelementptr inbounds i32, ptr %10, i64 0
  %12 = load i32, ptr %11, align 4
  call void @_ZN2cv5Size_IiEC2Eii(ptr noundef nonnull align 4 dereferenceable(8) %2, i32 noundef %8, i32 noundef %12)
  %13 = load i64, ptr %2, align 4
  ret i64 %13
}

; Function Attrs: mustprogress uwtable
define internal noundef zeroext i1 @_ZN2cvL13isInitializerERKNS_7MatExprE(ptr noundef nonnull align 8 dereferenceable(352) %0) #6 {
  %2 = alloca ptr, align 8
  store ptr %0, ptr %2, align 8
  %3 = load ptr, ptr %2, align 8
  %4 = getelementptr inbounds %"class.cv::MatExpr", ptr %3, i32 0, i32 0
  %5 = load ptr, ptr %4, align 8
  %6 = call noundef ptr @_ZN2cvL25getGlobalMatOpInitializerEv()
  %7 = icmp eq ptr %5, %6
  ret i1 %7
}

; Function Attrs: mustprogress nounwind uwtable
define internal noundef zeroext i1 @_ZN2cvL7isSolveERKNS_7MatExprE(ptr noundef nonnull align 8 dereferenceable(352) %0) #4 {
  %2 = alloca ptr, align 8
  store ptr %0, ptr %2, align 8
  %3 = load ptr, ptr %2, align 8
  %4 = getelementptr inbounds %"class.cv::MatExpr", ptr %3, i32 0, i32 0
  %5 = load ptr, ptr %4, align 8
  %6 = icmp eq ptr %5, @_ZN2cvL13g_MatOp_SolveE
  ret i1 %6
}

; Function Attrs: mustprogress nounwind uwtable
define linkonce_odr hidden void @_ZN2cv5Size_IiEC2Eii(ptr noundef nonnull align 4 dereferenceable(8) %0, i32 noundef %1, i32 noundef %2) unnamed_addr #4 comdat align 2 {
  %4 = alloca ptr, align 8
  %5 = alloca i32, align 4
  %6 = alloca i32, align 4
  store ptr %0, ptr %4, align 8
  store i32 %1, ptr %5, align 4
  store i32 %2, ptr %6, align 4
  %7 = load ptr, ptr %4, align 8
  %8 = getelementptr inbounds %"class.cv::Size_", ptr %7, i32 0, i32 0
  %9 = load i32, ptr %5, align 4
  store i32 %9, ptr %8, align 4
  %10 = getelementptr inbounds %"class.cv::Size_", ptr %7, i32 0, i32 1
  %11 = load i32, ptr %6, align 4
  store i32 %11, ptr %10, align 4
  ret void
}

; Function Attrs: mustprogress nounwind uwtable
define internal noundef zeroext i1 @_ZN2cvL5isInvERKNS_7MatExprE(ptr noundef nonnull align 8 dereferenceable(352) %0) #4 {
  %2 = alloca ptr, align 8
  store ptr %0, ptr %2, align 8
  %3 = load ptr, ptr %2, align 8
  %4 = getelementptr inbounds %"class.cv::MatExpr", ptr %3, i32 0, i32 0
  %5 = load ptr, ptr %4, align 8
  %6 = icmp eq ptr %5, @_ZN2cvL14g_MatOp_InvertE
  ret i1 %6
}

; Function Attrs: mustprogress nounwind uwtable
define internal noundef zeroext i1 @_ZN2cvL3isTERKNS_7MatExprE(ptr noundef nonnull align 8 dereferenceable(352) %0) #4 {
  %2 = alloca ptr, align 8
  store ptr %0, ptr %2, align 8
  %3 = load ptr, ptr %2, align 8
  %4 = getelementptr inbounds %"class.cv::MatExpr", ptr %3, i32 0, i32 0
  %5 = load ptr, ptr %4, align 8
  %6 = icmp eq ptr %5, @_ZN2cvL9g_MatOp_TE
  ret i1 %6
}

; Function Attrs: mustprogress uwtable
define i64 @_ZNK2cv7MatExpr4sizeEv(ptr noundef nonnull align 8 dereferenceable(352) %0) #6 align 2 {
  %2 = alloca %"class.cv::Size_", align 4
  %3 = alloca ptr, align 8
  store ptr %0, ptr %3, align 8
  %4 = load ptr, ptr %3, align 8
  %5 = call noundef zeroext i1 @_ZN2cvL3isTERKNS_7MatExprE(ptr noundef nonnull align 8 dereferenceable(352) %4)
  br i1 %5, label %8, label %6

6:                                                ; preds = %1
  %7 = call noundef zeroext i1 @_ZN2cvL5isInvERKNS_7MatExprE(ptr noundef nonnull align 8 dereferenceable(352) %4)
  br i1 %7, label %8, label %15

8:                                                ; preds = %6, %1
  %9 = getelementptr inbounds %"class.cv::MatExpr", ptr %4, i32 0, i32 2
  %10 = getelementptr inbounds %"class.cv::Mat", ptr %9, i32 0, i32 2
  %11 = load i32, ptr %10, align 8
  %12 = getelementptr inbounds %"class.cv::MatExpr", ptr %4, i32 0, i32 2
  %13 = getelementptr inbounds %"class.cv::Mat", ptr %12, i32 0, i32 3
  %14 = load i32, ptr %13, align 4
  call void @_ZN2cv5Size_IiEC2Eii(ptr noundef nonnull align 4 dereferenceable(8) %2, i32 noundef %11, i32 noundef %14)
  br label %43

15:                                               ; preds = %6
  %16 = call noundef zeroext i1 @_ZN2cvL7isSolveERKNS_7MatExprE(ptr noundef nonnull align 8 dereferenceable(352) %4)
  br i1 %16, label %17, label %24

17:                                               ; preds = %15
  %18 = getelementptr inbounds %"class.cv::MatExpr", ptr %4, i32 0, i32 3
  %19 = getelementptr inbounds %"class.cv::Mat", ptr %18, i32 0, i32 3
  %20 = load i32, ptr %19, align 4
  %21 = getelementptr inbounds %"class.cv::MatExpr", ptr %4, i32 0, i32 2
  %22 = getelementptr inbounds %"class.cv::Mat", ptr %21, i32 0, i32 3
  %23 = load i32, ptr %22, align 4
  call void @_ZN2cv5Size_IiEC2Eii(ptr noundef nonnull align 4 dereferenceable(8) %2, i32 noundef %20, i32 noundef %23)
  br label %43

24:                                               ; preds = %15
  %25 = call noundef zeroext i1 @_ZN2cvL13isInitializerERKNS_7MatExprE(ptr noundef nonnull align 8 dereferenceable(352) %4)
  br i1 %25, label %26, label %30

26:                                               ; preds = %24
  %27 = getelementptr inbounds %"class.cv::MatExpr", ptr %4, i32 0, i32 2
  %28 = getelementptr inbounds %"class.cv::Mat", ptr %27, i32 0, i32 10
  %29 = call i64 @_ZNK2cv7MatSizeclEv(ptr noundef nonnull align 8 dereferenceable(8) %28)
  store i64 %29, ptr %2, align 4
  br label %43

30:                                               ; preds = %24
  %31 = getelementptr inbounds %"class.cv::MatExpr", ptr %4, i32 0, i32 0
  %32 = load ptr, ptr %31, align 8
  %33 = icmp ne ptr %32, null
  br i1 %33, label %34, label %41

34:                                               ; preds = %30
  %35 = getelementptr inbounds %"class.cv::MatExpr", ptr %4, i32 0, i32 0
  %36 = load ptr, ptr %35, align 8
  %37 = load ptr, ptr %36, align 8
  %38 = getelementptr inbounds ptr, ptr %37, i64 25
  %39 = load ptr, ptr %38, align 8
  %40 = call i64 %39(ptr noundef nonnull align 8 dereferenceable(8) %36, ptr noundef nonnull align 8 dereferenceable(352) %4)
  store i64 %40, ptr %2, align 4
  br label %42

41:                                               ; preds = %30
  call void @_ZN2cv5Size_IiEC2Ev(ptr noundef nonnull align 4 dereferenceable(8) %2)
  br label %42

42:                                               ; preds = %41, %34
  br label %43

43:                                               ; preds = %42, %26, %17, %8
  %44 = load i64, ptr %2, align 4
  ret i64 %44
}