; Function Attrs: mustprogress uwtable
define i64 @_ZNK2cv7MatExpr4sizeEv(ptr noundef nonnull align 8 dereferenceable(352) %0) local_unnamed_addr #8 align 2 personality ptr @__gxx_personality_v0 {
  %.val = load ptr, ptr %0, align 8
  %2 = icmp eq ptr %.val, @_ZN2cvL9g_MatOp_TE
  %3 = icmp eq ptr %.val, @_ZN2cvL14g_MatOp_InvertE
  %or.cond = or i1 %2, %3
  br i1 %or.cond, label %4, label %9

4:                                                ; preds = %1
  %5 = getelementptr inbounds i8, ptr %0, i64 24
  %6 = load i32, ptr %5, align 8
  %7 = getelementptr inbounds i8, ptr %0, i64 28
  %8 = load i32, ptr %7, align 4
  br label %41

9:                                                ; preds = %1
  %10 = icmp eq ptr %.val, @_ZN2cvL13g_MatOp_SolveE
  br i1 %10, label %11, label %16

11:                                               ; preds = %9
  %12 = getelementptr inbounds i8, ptr %0, i64 124
  %13 = load i32, ptr %12, align 4
  %14 = getelementptr inbounds i8, ptr %0, i64 28
  %15 = load i32, ptr %14, align 4
  br label %41

16:                                               ; preds = %9
  %17 = load atomic i8, ptr @_ZGVZN2cvL25getGlobalMatOpInitializerEvE8instance acquire, align 8
  %18 = icmp eq i8 %17, 0
  br i1 %18, label %19, label %_ZN2cvL13isInitializerERKNS_7MatExprE.exit, !prof !28

19:                                               ; preds = %16
  %20 = tail call i32 @__cxa_guard_acquire(ptr nonnull @_ZGVZN2cvL25getGlobalMatOpInitializerEvE8instance) #21
  %.not.i.i = icmp eq i32 %20, 0
  br i1 %.not.i.i, label %_ZN2cvL13isInitializerERKNS_7MatExprE.exit, label %21

21:                                               ; preds = %19
  %22 = invoke noalias noundef nonnull dereferenceable(8) ptr @_Znwm(i64 noundef 8) #23
          to label %23 unwind label %24

23:                                               ; preds = %21
  store ptr getelementptr inbounds inrange(-16, 216) (i8, ptr @_ZTVN2cv17MatOp_InitializerE, i64 16), ptr %22, align 8
  store ptr %22, ptr @_ZZN2cvL25getGlobalMatOpInitializerEvE8instance, align 8
  tail call void @__cxa_guard_release(ptr nonnull @_ZGVZN2cvL25getGlobalMatOpInitializerEvE8instance) #21
  br label %_ZN2cvL13isInitializerERKNS_7MatExprE.exit

24:                                               ; preds = %21
  %25 = landingpad { ptr, i32 }
          cleanup
  tail call void @__cxa_guard_abort(ptr nonnull @_ZGVZN2cvL25getGlobalMatOpInitializerEvE8instance) #21
  resume { ptr, i32 } %25

_ZN2cvL13isInitializerERKNS_7MatExprE.exit:       ; preds = %16, %19, %23
  %26 = load ptr, ptr @_ZZN2cvL25getGlobalMatOpInitializerEvE8instance, align 8
  %27 = icmp eq ptr %.val, %26
  br i1 %27, label %28, label %34

28:                                               ; preds = %_ZN2cvL13isInitializerERKNS_7MatExprE.exit
  %29 = getelementptr inbounds i8, ptr %0, i64 80
  %30 = load ptr, ptr %29, align 8
  %31 = getelementptr inbounds i8, ptr %30, i64 4
  %32 = load i32, ptr %31, align 4
  %33 = load i32, ptr %30, align 4
  br label %41

34:                                               ; preds = %_ZN2cvL13isInitializerERKNS_7MatExprE.exit
  %35 = load ptr, ptr %0, align 8
  %.not = icmp eq ptr %35, null
  br i1 %.not, label %41, label %36

36:                                               ; preds = %34
  %37 = load ptr, ptr %35, align 8
  %38 = getelementptr inbounds i8, ptr %37, i64 200
  %39 = load ptr, ptr %38, align 8
  %40 = tail call i64 %39(ptr noundef nonnull align 8 dereferenceable(8) %35, ptr noundef nonnull align 8 dereferenceable(352) %0)
  %.sroa.0.0.extract.trunc3 = trunc i64 %40 to i32
  %.sroa.6.0.extract.shift4 = lshr i64 %40, 32
  %.sroa.6.0.extract.trunc5 = trunc nuw i64 %.sroa.6.0.extract.shift4 to i32
  br label %41

41:                                               ; preds = %34, %36, %28, %11, %4
  %.sroa.6.0 = phi i32 [ %8, %4 ], [ %15, %11 ], [ %33, %28 ], [ %.sroa.6.0.extract.trunc5, %36 ], [ 0, %34 ]
  %.sroa.0.0 = phi i32 [ %6, %4 ], [ %13, %11 ], [ %32, %28 ], [ %.sroa.0.0.extract.trunc3, %36 ], [ 0, %34 ]
  %.sroa.6.0.insert.ext = zext i32 %.sroa.6.0 to i64
  %.sroa.6.0.insert.shift = shl nuw i64 %.sroa.6.0.insert.ext, 32
  %.sroa.0.0.insert.ext = zext i32 %.sroa.0.0 to i64
  %.sroa.0.0.insert.insert = or disjoint i64 %.sroa.6.0.insert.shift, %.sroa.0.0.insert.ext
  ret i64 %.sroa.0.0.insert.insert
}